target datalayout = "e-m:e-p270:32:32-p271:32:32-p272:64:64-i64:64-i128:128-f80:128-n8:16:32:64-S128"
target triple = "x86_64-pc-linux-gnu"

%struct.cavs_vector = type { i16, i16, i16, i16 }
%struct.AVSContext = type { ptr, %struct.BlockDSPContext, %struct.H264ChromaContext, %struct.VideoDSPContext, %struct.CAVSDSPContext, %struct.GetBitContext, %struct.AVSFrame, [2 x %struct.AVSFrame], [2 x i32], i32, i32, i32, i32, i32, i32, i32, i32, i32, i32, i32, i32, i32, i32, i32, i32, i32, i32, i32, i32, i32, ptr, ptr, ptr, i32, ptr, [24 x %struct.cavs_vector], [2 x ptr], ptr, [9 x i32], ptr, i64, i64, [4 x i32], i32, i32, i32, i32, [64 x i8], ptr, ptr, ptr, [26 x i8], [10 x i8], [10 x i8], [26 x i8], i8, i8, i8, [8 x ptr], [7 x ptr], ptr, i32, [2 x i32], [2 x i32], ptr, i32, ptr }
%struct.BlockDSPContext = type { ptr, ptr, [2 x ptr] }
%struct.H264ChromaContext = type { [4 x ptr], [4 x ptr] }
%struct.VideoDSPContext = type { ptr, ptr }
%struct.CAVSDSPContext = type { [2 x [16 x ptr]], [2 x [16 x ptr]], ptr, ptr, ptr, ptr, ptr, i32 }
%struct.GetBitContext = type { ptr, ptr, i32, i32, i32 }
%struct.AVSFrame = type { ptr, i32 }

; Function Attrs: alwaysinline nounwind willreturn memory(none) uwtable
define internal i32 @av_clip_c(i32 noundef %0, i32 noundef %1, i32 noundef %2) #5 {
  %4 = alloca i32, align 4
  %5 = alloca i32, align 4
  %6 = alloca i32, align 4
  %7 = alloca i32, align 4
  store i32 %0, ptr %5, align 4, !tbaa !40
  store i32 %1, ptr %6, align 4, !tbaa !40
  store i32 %2, ptr %7, align 4, !tbaa !40
  %8 = load i32, ptr %5, align 4, !tbaa !40
  %9 = load i32, ptr %6, align 4, !tbaa !40
  %10 = icmp slt i32 %8, %9
  br i1 %10, label %11, label %13

11:                                               ; preds = %3
  %12 = load i32, ptr %6, align 4, !tbaa !40
  store i32 %12, ptr %4, align 4
  br label %21

13:                                               ; preds = %3
  %14 = load i32, ptr %5, align 4, !tbaa !40
  %15 = load i32, ptr %7, align 4, !tbaa !40
  %16 = icmp sgt i32 %14, %15
  br i1 %16, label %17, label %19

17:                                               ; preds = %13
  %18 = load i32, ptr %7, align 4, !tbaa !40
  store i32 %18, ptr %4, align 4
  br label %21

19:                                               ; preds = %13
  %20 = load i32, ptr %5, align 4, !tbaa !40
  store i32 %20, ptr %4, align 4
  br label %21

21:                                               ; preds = %19, %17, %11
  %22 = load i32, ptr %4, align 4
  ret i32 %22
}

; Function Attrs: inlinehint nounwind uwtable
define internal i32 @get_bits_long(ptr noundef %0, i32 noundef %1) #3 {
  %3 = alloca i32, align 4
  %4 = alloca ptr, align 8
  %5 = alloca i32, align 4
  %6 = alloca i32, align 4
  store ptr %0, ptr %4, align 8, !tbaa !60
  store i32 %1, ptr %5, align 4, !tbaa !40
  %7 = load i32, ptr %5, align 4, !tbaa !40
  %8 = icmp ne i32 %7, 0
  br i1 %8, label %10, label %9

9:                                                ; preds = %2
  store i32 0, ptr %3, align 4
  br label %29

10:                                               ; preds = %2
  %11 = load i32, ptr %5, align 4, !tbaa !40
  %12 = icmp sle i32 %11, 25
  br i1 %12, label %13, label %17

13:                                               ; preds = %10
  %14 = load ptr, ptr %4, align 8, !tbaa !60
  %15 = load i32, ptr %5, align 4, !tbaa !40
  %16 = call i32 @get_bits(ptr noundef %14, i32 noundef %15)
  store i32 %16, ptr %3, align 4
  br label %29

17:                                               ; preds = %10
  call void @llvm.lifetime.start.p0(i64 4, ptr %6) #6
  %18 = load ptr, ptr %4, align 8, !tbaa !60
  %19 = call i32 @get_bits(ptr noundef %18, i32 noundef 16)
  %20 = load i32, ptr %5, align 4, !tbaa !40
  %21 = sub nsw i32 %20, 16
  %22 = shl i32 %19, %21
  store i32 %22, ptr %6, align 4, !tbaa !40
  %23 = load i32, ptr %6, align 4, !tbaa !40
  %24 = load ptr, ptr %4, align 8, !tbaa !60
  %25 = load i32, ptr %5, align 4, !tbaa !40
  %26 = sub nsw i32 %25, 16
  %27 = call i32 @get_bits(ptr noundef %24, i32 noundef %26)
  %28 = or i32 %23, %27
  store i32 %28, ptr %3, align 4
  call void @llvm.lifetime.end.p0(i64 4, ptr %6) #6
  br label %29

29:                                               ; preds = %17, %13, %9
  %30 = load i32, ptr %3, align 4
  ret i32 %30
}

; Function Attrs: alwaysinline nounwind willreturn memory(none) uwtable
define internal i32 @av_bswap32(i32 noundef %0) #5 {
  %2 = alloca i32, align 4
  store i32 %0, ptr %2, align 4, !tbaa !40
  %3 = load i32, ptr %2, align 4, !tbaa !40
  %4 = shl i32 %3, 8
  %5 = and i32 %4, 65280
  %6 = load i32, ptr %2, align 4, !tbaa !40
  %7 = lshr i32 %6, 8
  %8 = and i32 %7, 255
  %9 = or i32 %5, %8
  %10 = shl i32 %9, 16
  %11 = load i32, ptr %2, align 4, !tbaa !40
  %12 = lshr i32 %11, 16
  %13 = shl i32 %12, 8
  %14 = and i32 %13, 65280
  %15 = load i32, ptr %2, align 4, !tbaa !40
  %16 = lshr i32 %15, 16
  %17 = lshr i32 %16, 8
  %18 = and i32 %17, 255
  %19 = or i32 %14, %18
  %20 = or i32 %10, %19
  ret i32 %20
}

; Function Attrs: inlinehint nounwind uwtable
define internal i32 @get_bits(ptr noundef %0, i32 noundef %1) #3 {
  %3 = alloca ptr, align 8
  %4 = alloca i32, align 4
  %5 = alloca i32, align 4
  %6 = alloca i32, align 4
  %7 = alloca i32, align 4
  %8 = alloca i32, align 4
  store ptr %0, ptr %3, align 8, !tbaa !60
  store i32 %1, ptr %4, align 4, !tbaa !40
  call void @llvm.lifetime.start.p0(i64 4, ptr %5) #6
  call void @llvm.lifetime.start.p0(i64 4, ptr %6) #6
  %9 = load ptr, ptr %3, align 8, !tbaa !60
  %10 = getelementptr inbounds nuw %struct.GetBitContext, ptr %9, i32 0, i32 2
  %11 = load i32, ptr %10, align 8, !tbaa !66
  store i32 %11, ptr %6, align 4, !tbaa !40
  call void @llvm.lifetime.start.p0(i64 4, ptr %7) #6
  call void @llvm.lifetime.start.p0(i64 4, ptr %8) #6
  %12 = load ptr, ptr %3, align 8, !tbaa !60
  %13 = getelementptr inbounds nuw %struct.GetBitContext, ptr %12, i32 0, i32 4
  %14 = load i32, ptr %13, align 8, !tbaa !64
  store i32 %14, ptr %8, align 4, !tbaa !40
  %15 = load ptr, ptr %3, align 8, !tbaa !60
  %16 = getelementptr inbounds nuw %struct.GetBitContext, ptr %15, i32 0, i32 0
  %17 = load ptr, ptr %16, align 8, !tbaa !62
  %18 = load i32, ptr %6, align 4, !tbaa !40
  %19 = lshr i32 %18, 3
  %20 = zext i32 %19 to i64
  %21 = getelementptr inbounds nuw i8, ptr %17, i64 %20
  %22 = load i32, ptr %21, align 1, !tbaa !99
  %23 = call i32 @av_bswap32(i32 noundef %22) #7
  %24 = load i32, ptr %6, align 4, !tbaa !40
  %25 = and i32 %24, 7
  %26 = shl i32 %23, %25
  %27 = lshr i32 %26, 0
  store i32 %27, ptr %7, align 4, !tbaa !40
  %28 = load i32, ptr %7, align 4, !tbaa !40
  %29 = load i32, ptr %4, align 4, !tbaa !40
  %30 = sub nsw i32 32, %29
  %31 = lshr i32 %28, %30
  store i32 %31, ptr %5, align 4, !tbaa !40
  %32 = load i32, ptr %8, align 4, !tbaa !40
  %33 = load i32, ptr %6, align 4, !tbaa !40
  %34 = load i32, ptr %4, align 4, !tbaa !40
  %35 = add i32 %33, %34
  %36 = icmp ugt i32 %32, %35
  br i1 %36, label %37, label %41

37:                                               ; preds = %2
  %38 = load i32, ptr %6, align 4, !tbaa !40
  %39 = load i32, ptr %4, align 4, !tbaa !40
  %40 = add i32 %38, %39
  br label %43

41:                                               ; preds = %2
  %42 = load i32, ptr %8, align 4, !tbaa !40
  br label %43

43:                                               ; preds = %41, %37
  %44 = phi i32 [ %40, %37 ], [ %42, %41 ]
  store i32 %44, ptr %6, align 4, !tbaa !40
  %45 = load i32, ptr %6, align 4, !tbaa !40
  %46 = load ptr, ptr %3, align 8, !tbaa !60
  %47 = getelementptr inbounds nuw %struct.GetBitContext, ptr %46, i32 0, i32 2
  store i32 %45, ptr %47, align 8, !tbaa !66
  %48 = load i32, ptr %5, align 4, !tbaa !40
  call void @llvm.lifetime.end.p0(i64 4, ptr %8) #6
  call void @llvm.lifetime.end.p0(i64 4, ptr %7) #6
  call void @llvm.lifetime.end.p0(i64 4, ptr %6) #6
  call void @llvm.lifetime.end.p0(i64 4, ptr %5) #6
  ret i32 %48
}

; Function Attrs: inlinehint nounwind uwtable
define internal void @skip_bits_long(ptr noundef %0, i32 noundef %1) #3 {
  %3 = alloca ptr, align 8
  %4 = alloca i32, align 4
  store ptr %0, ptr %3, align 8, !tbaa !60
  store i32 %1, ptr %4, align 4, !tbaa !40
  %5 = load i32, ptr %4, align 4, !tbaa !40
  %6 = load ptr, ptr %3, align 8, !tbaa !60
  %7 = getelementptr inbounds nuw %struct.GetBitContext, ptr %6, i32 0, i32 2
  %8 = load i32, ptr %7, align 8, !tbaa !66
  %9 = sub nsw i32 0, %8
  %10 = load ptr, ptr %3, align 8, !tbaa !60
  %11 = getelementptr inbounds nuw %struct.GetBitContext, ptr %10, i32 0, i32 4
  %12 = load i32, ptr %11, align 8, !tbaa !64
  %13 = load ptr, ptr %3, align 8, !tbaa !60
  %14 = getelementptr inbounds nuw %struct.GetBitContext, ptr %13, i32 0, i32 2
  %15 = load i32, ptr %14, align 8, !tbaa !66
  %16 = sub nsw i32 %12, %15
  %17 = call i32 @av_clip_c(i32 noundef %5, i32 noundef %9, i32 noundef %16) #7
  %18 = load ptr, ptr %3, align 8, !tbaa !60
  %19 = getelementptr inbounds nuw %struct.GetBitContext, ptr %18, i32 0, i32 2
  %20 = load i32, ptr %19, align 8, !tbaa !66
  %21 = add nsw i32 %20, %17
  store i32 %21, ptr %19, align 8, !tbaa !66
  ret void
}

; Function Attrs: inlinehint nounwind uwtable
define internal i32 @show_bits_long(ptr noundef %0, i32 noundef %1) #3 {
  %3 = alloca i32, align 4
  %4 = alloca ptr, align 8
  %5 = alloca i32, align 4
  %6 = alloca %struct.GetBitContext, align 8
  store ptr %0, ptr %4, align 8, !tbaa !60
  store i32 %1, ptr %5, align 4, !tbaa !40
  %7 = load i32, ptr %5, align 4, !tbaa !40
  %8 = icmp sle i32 %7, 25
  br i1 %8, label %9, label %13

9:                                                ; preds = %2
  %10 = load ptr, ptr %4, align 8, !tbaa !60
  %11 = load i32, ptr %5, align 4, !tbaa !40
  %12 = call i32 @show_bits(ptr noundef %10, i32 noundef %11)
  store i32 %12, ptr %3, align 4
  br label %17

13:                                               ; preds = %2
  call void @llvm.lifetime.start.p0(i64 32, ptr %6) #6
  %14 = load ptr, ptr %4, align 8, !tbaa !60
  call void @llvm.memcpy.p0.p0.i64(ptr align 8 %6, ptr align 8 %14, i64 32, i1 false), !tbaa.struct !121
  %15 = load i32, ptr %5, align 4, !tbaa !40
  %16 = call i32 @get_bits_long(ptr noundef %6, i32 noundef %15)
  store i32 %16, ptr %3, align 4
  call void @llvm.lifetime.end.p0(i64 32, ptr %6) #6
  br label %17

17:                                               ; preds = %13, %9
  %18 = load i32, ptr %3, align 4
  ret i32 %18
}

; Function Attrs: inlinehint nounwind uwtable
define internal i32 @show_bits(ptr noundef %0, i32 noundef %1) #3 {
  %3 = alloca ptr, align 8
  %4 = alloca i32, align 4
  %5 = alloca i32, align 4
  %6 = alloca i32, align 4
  %7 = alloca i32, align 4
  store ptr %0, ptr %3, align 8, !tbaa !60
  store i32 %1, ptr %4, align 4, !tbaa !40
  call void @llvm.lifetime.start.p0(i64 4, ptr %5) #6
  call void @llvm.lifetime.start.p0(i64 4, ptr %6) #6
  %8 = load ptr, ptr %3, align 8, !tbaa !60
  %9 = getelementptr inbounds nuw %struct.GetBitContext, ptr %8, i32 0, i32 2
  %10 = load i32, ptr %9, align 8, !tbaa !66
  store i32 %10, ptr %6, align 4, !tbaa !40
  call void @llvm.lifetime.start.p0(i64 4, ptr %7) #6
  %11 = load ptr, ptr %3, align 8, !tbaa !60
  %12 = getelementptr inbounds nuw %struct.GetBitContext, ptr %11, i32 0, i32 0
  %13 = load ptr, ptr %12, align 8, !tbaa !62
  %14 = load i32, ptr %6, align 4, !tbaa !40
  %15 = lshr i32 %14, 3
  %16 = zext i32 %15 to i64
  %17 = getelementptr inbounds nuw i8, ptr %13, i64 %16
  %18 = load i32, ptr %17, align 1, !tbaa !99
  %19 = call i32 @av_bswap32(i32 noundef %18) #7
  %20 = load i32, ptr %6, align 4, !tbaa !40
  %21 = and i32 %20, 7
  %22 = shl i32 %19, %21
  %23 = lshr i32 %22, 0
  store i32 %23, ptr %7, align 4, !tbaa !40
  %24 = load i32, ptr %7, align 4, !tbaa !40
  %25 = load i32, ptr %4, align 4, !tbaa !40
  %26 = sub nsw i32 32, %25
  %27 = lshr i32 %24, %26
  store i32 %27, ptr %5, align 4, !tbaa !40
  %28 = load i32, ptr %5, align 4, !tbaa !40
  call void @llvm.lifetime.end.p0(i64 4, ptr %7) #6
  call void @llvm.lifetime.end.p0(i64 4, ptr %6) #6
  call void @llvm.lifetime.end.p0(i64 4, ptr %5) #6
  ret i32 %28
}

; Function Attrs: inlinehint nounwind uwtable
define internal i32 @get_bits_count(ptr noundef %0) #3 {
  %2 = alloca ptr, align 8
  store ptr %0, ptr %2, align 8, !tbaa !60
  %3 = load ptr, ptr %2, align 8, !tbaa !60
  %4 = getelementptr inbounds nuw %struct.GetBitContext, ptr %3, i32 0, i32 2
  %5 = load i32, ptr %4, align 8, !tbaa !66
  ret i32 %5
}

; Function Attrs: inlinehint nounwind uwtable
define internal i32 @check_for_slice(ptr noundef %0) #3 {
  %2 = alloca i32, align 4
  %3 = alloca ptr, align 8
  %4 = alloca ptr, align 8
  %5 = alloca i32, align 4
  %6 = alloca i32, align 4
  store ptr %0, ptr %3, align 8, !tbaa !34
  call void @llvm.lifetime.start.p0(i64 8, ptr %4) #6
  %7 = load ptr, ptr %3, align 8, !tbaa !34
  %8 = getelementptr inbounds nuw %struct.AVSContext, ptr %7, i32 0, i32 5
  store ptr %8, ptr %4, align 8, !tbaa !60
  call void @llvm.lifetime.start.p0(i64 4, ptr %5) #6
  %9 = load ptr, ptr %3, align 8, !tbaa !34
  %10 = getelementptr inbounds nuw %struct.AVSContext, ptr %9, i32 0, i32 25
  %11 = load i32, ptr %10, align 8, !tbaa !100
  %12 = icmp ne i32 %11, 0
  br i1 %12, label %13, label %14

13:                                               ; preds = %1
  store i32 0, ptr %2, align 4
  store i32 1, ptr %6, align 4
  br label %54

14:                                               ; preds = %1
  %15 = load ptr, ptr %4, align 8, !tbaa !60
  %16 = call i32 @get_bits_count(ptr noundef %15)
  %17 = sub nsw i32 0, %16
  %18 = and i32 %17, 7
  store i32 %18, ptr %5, align 4, !tbaa !40
  %19 = load i32, ptr %5, align 4, !tbaa !40
  %20 = icmp ne i32 %19, 0
  br i1 %20, label %26, label %21

21:                                               ; preds = %14
  %22 = load ptr, ptr %4, align 8, !tbaa !60
  %23 = call i32 @show_bits(ptr noundef %22, i32 noundef 8)
  %24 = icmp eq i32 %23, 128
  br i1 %24, label %25, label %26

25:                                               ; preds = %21
  store i32 8, ptr %5, align 4, !tbaa !40
  br label %26

26:                                               ; preds = %25, %21, %14
  %27 = load ptr, ptr %4, align 8, !tbaa !60
  %28 = load i32, ptr %5, align 4, !tbaa !40
  %29 = add nsw i32 24, %28
  %30 = call i32 @show_bits_long(ptr noundef %27, i32 noundef %29)
  %31 = and i32 %30, 16777215
  %32 = icmp eq i32 %31, 1
  br i1 %32, label %33, label %53

33:                                               ; preds = %26
  %34 = load ptr, ptr %4, align 8, !tbaa !60
  %35 = load i32, ptr %5, align 4, !tbaa !40
  %36 = add nsw i32 24, %35
  call void @skip_bits_long(ptr noundef %34, i32 noundef %36)
  %37 = load ptr, ptr %4, align 8, !tbaa !60
  %38 = call i32 @get_bits(ptr noundef %37, i32 noundef 8)
  %39 = load ptr, ptr %3, align 8, !tbaa !34
  %40 = getelementptr inbounds nuw %struct.AVSContext, ptr %39, i32 0, i32 29
  store i32 %38, ptr %40, align 8, !tbaa !51
  %41 = load ptr, ptr %3, align 8, !tbaa !34
  %42 = getelementptr inbounds nuw %struct.AVSContext, ptr %41, i32 0, i32 29
  %43 = load i32, ptr %42, align 8, !tbaa !51
  %44 = load ptr, ptr %3, align 8, !tbaa !34
  %45 = getelementptr inbounds nuw %struct.AVSContext, ptr %44, i32 0, i32 14
  %46 = load i32, ptr %45, align 4, !tbaa !73
  %47 = icmp sge i32 %43, %46
  br i1 %47, label %48, label %49

48:                                               ; preds = %33
  store i32 0, ptr %2, align 4
  store i32 1, ptr %6, align 4
  br label %54

49:                                               ; preds = %33
  %50 = load ptr, ptr %3, align 8, !tbaa !34
  %51 = load ptr, ptr %4, align 8, !tbaa !60
  %52 = call i32 @decode_slice_header(ptr noundef %50, ptr noundef %51)
  store i32 1, ptr %2, align 4
  store i32 1, ptr %6, align 4
  br label %54

53:                                               ; preds = %26
  store i32 0, ptr %2, align 4
  store i32 1, ptr %6, align 4
  br label %54

54:                                               ; preds = %53, %49, %48, %13
  call void @llvm.lifetime.end.p0(i64 4, ptr %5) #6
  call void @llvm.lifetime.end.p0(i64 8, ptr %4) #6
  %55 = load i32, ptr %2, align 4
  ret i32 %55
}