; Function Attrs: inlinehint nounwind uwtable
define internal fastcc range(i32 0, 2) i32 @check_for_slice(ptr noundef captures(none) %0) unnamed_addr #4 {
  %2 = getelementptr inbounds nuw i8, ptr %0, i64 680
  %3 = getelementptr inbounds nuw i8, ptr %0, i64 832
  %4 = load i32, ptr %3, align 8, !tbaa !85
  %.not = icmp eq i32 %4, 0
  br i1 %.not, label %5, label %76

5:                                                ; preds = %1
  %6 = getelementptr i8, ptr %0, i64 696
  %.val20 = load i32, ptr %6, align 8, !tbaa !50
  %7 = sub nsw i32 0, %.val20
  %8 = and i32 %7, 7
  %.not17 = icmp eq i32 %8, 0
  %.val.i.pre = load ptr, ptr %2, align 8, !tbaa !43
  br i1 %.not17, label %9, label %18

9:                                                ; preds = %5
  %10 = lshr i32 %.val20, 3
  %11 = zext nneg i32 %10 to i64
  %12 = getelementptr inbounds nuw i8, ptr %.val.i.pre, i64 %11
  %13 = load i32, ptr %12, align 1, !tbaa !51
  %14 = tail call i32 @llvm.bswap.i32(i32 %13)
  %15 = and i32 %.val20, 7
  %16 = shl i32 %14, %15
  %17 = icmp slt i32 %16, -2130706432
  br i1 %17, label %.thread23, label %.thread

18:                                               ; preds = %5
  %19 = or disjoint i32 %8, 24
  %20 = icmp eq i32 %8, 1
  br i1 %20, label %.thread, label %.thread23

.thread:                                          ; preds = %9, %18
  %21 = phi i32 [ 25, %18 ], [ 24, %9 ]
  %.022.neg = phi i32 [ 7, %18 ], [ 8, %9 ]
  %22 = lshr i32 %.val20, 3
  %23 = zext nneg i32 %22 to i64
  %24 = getelementptr inbounds nuw i8, ptr %.val.i.pre, i64 %23
  %25 = load i32, ptr %24, align 1, !tbaa !51
  %26 = tail call i32 @llvm.bswap.i32(i32 %25)
  %27 = and i32 %.val20, 7
  %28 = shl i32 %26, %27
  %29 = lshr i32 %28, %.022.neg
  br label %show_bits_long.exit

.thread23:                                        ; preds = %9, %18
  %30 = phi i32 [ %19, %18 ], [ 32, %9 ]
  %.025 = phi i32 [ %8, %18 ], [ 8, %9 ]
  %.sroa.78.0..sroa_idx.i = getelementptr inbounds nuw i8, ptr %0, i64 704
  %.sroa.78.0.copyload.i = load i32, ptr %.sroa.78.0..sroa_idx.i, align 8, !tbaa !30
  %31 = lshr i32 %.val20, 3
  %32 = zext nneg i32 %31 to i64
  %33 = getelementptr inbounds nuw i8, ptr %.val.i.pre, i64 %32
  %34 = load i32, ptr %33, align 1, !tbaa !51
  %35 = tail call i32 @llvm.bswap.i32(i32 %34)
  %36 = and i32 %.val20, 7
  %37 = shl i32 %35, %36
  %38 = lshr i32 %37, 16
  %39 = add i32 %.val20, 16
  %40 = tail call i32 @llvm.umin.i32(i32 %.sroa.78.0.copyload.i, i32 %39)
  %41 = add nuw nsw i32 %.025, 8
  %42 = lshr i32 %40, 3
  %43 = zext nneg i32 %42 to i64
  %44 = getelementptr inbounds nuw i8, ptr %.val.i.pre, i64 %43
  %45 = load i32, ptr %44, align 1, !tbaa !51
  %46 = tail call i32 @llvm.bswap.i32(i32 %45)
  %47 = and i32 %40, 7
  %48 = shl i32 %46, %47
  %49 = sub nuw nsw i32 24, %.025
  %50 = lshr i32 %48, %49
  %51 = shl nuw i32 %38, %41
  %52 = or i32 %50, %51
  br label %show_bits_long.exit

show_bits_long.exit:                              ; preds = %.thread, %.thread23
  %53 = phi i32 [ %21, %.thread ], [ %30, %.thread23 ]
  %.0.i = phi i32 [ %29, %.thread ], [ %52, %.thread23 ]
  %54 = and i32 %.0.i, 16777215
  %55 = icmp eq i32 %54, 1
  br i1 %55, label %56, label %76

56:                                               ; preds = %show_bits_long.exit
  %57 = getelementptr inbounds nuw i8, ptr %0, i64 704
  %58 = load i32, ptr %57, align 8, !tbaa !48
  %59 = sub nsw i32 %58, %.val20
  %60 = icmp slt i32 %53, %7
  %..i.i = tail call i32 @llvm.smin.i32(i32 range(i32 24, 33) %53, i32 %59)
  %.0.i.i = select i1 %60, i32 %7, i32 %..i.i
  %61 = add nsw i32 %.0.i.i, %.val20
  store i32 %61, ptr %6, align 8, !tbaa !50
  %62 = lshr i32 %61, 3
  %63 = zext nneg i32 %62 to i64
  %64 = getelementptr inbounds nuw i8, ptr %.val.i.pre, i64 %63
  %65 = load i32, ptr %64, align 1, !tbaa !51
  %66 = tail call i32 @llvm.bswap.i32(i32 %65)
  %67 = and i32 %61, 7
  %68 = shl i32 %66, %67
  %69 = lshr i32 %68, 24
  %70 = add i32 %61, 8
  %71 = tail call i32 @llvm.umin.i32(i32 %58, i32 %70)
  store i32 %71, ptr %6, align 8, !tbaa !50
  %72 = getelementptr inbounds nuw i8, ptr %0, i64 848
  store i32 %69, ptr %72, align 8, !tbaa !44
  %73 = getelementptr inbounds nuw i8, ptr %0, i64 788
  %74 = load i32, ptr %73, align 4, !tbaa !58
  %.not18 = icmp slt i32 %69, %74
  br i1 %.not18, label %75, label %76

75:                                               ; preds = %56
  tail call fastcc void @decode_slice_header(ptr noundef nonnull %0, ptr noundef nonnull %2)
  br label %76

76:                                               ; preds = %show_bits_long.exit, %56, %1, %75
  %.015 = phi i32 [ 1, %75 ], [ 0, %1 ], [ 0, %56 ], [ 0, %show_bits_long.exit ]
  ret i32 %.015
}